target datalayout = "e-m:e-p270:32:32-p271:32:32-p272:64:64-i64:64-i128:128-f80:128-n8:16:32:64-S128"
target triple = "x86_64-pc-linux-gnu"

@hf_op_mode = internal global i32 0, align 4
@hf_num_cos = internal global i32 0, align 4
@hf_num_queue = internal global i32 0, align 4
@hf_channel_id = internal global i32 0, align 4
@ett_link_states_req = internal global i32 0, align 4
@ett_link_desc_req = internal global i32 0, align 4
@.str.638 = private unnamed_addr constant [18 x i8] c"LINK_STATES_REQ: \00", align 1
@.str.639 = private unnamed_addr constant [14 x i8] c"LINK_DESC_REQ\00", align 1

; Function Attrs: null_pointer_is_valid sspstrong uwtable
define internal signext i16 @dissect_mih_list(ptr noundef %0, i16 noundef signext %1, ptr noundef %2, ptr noundef %3) #0 {
  %5 = alloca ptr, align 8
  %6 = alloca i16, align 2
  %7 = alloca ptr, align 8
  %8 = alloca ptr, align 8
  %9 = alloca i8, align 1
  %10 = alloca i8, align 1
  store ptr %0, ptr %5, align 8
  store i16 %1, ptr %6, align 2
  store ptr %2, ptr %7, align 8
  store ptr %3, ptr %8, align 8
  call void @llvm.lifetime.start.p0(i64 1, ptr %9) #5
  store i8 0, ptr %9, align 1
  call void @llvm.lifetime.start.p0(i64 1, ptr %10) #5
  %11 = load ptr, ptr %5, align 8
  %12 = load i16, ptr %6, align 2
  %13 = sext i16 %12 to i32
  %14 = call zeroext i8 @tvb_get_uint8(ptr noundef %11, i32 noundef %13)
  store i8 %14, ptr %10, align 1
  %15 = load i16, ptr %6, align 2
  %16 = add i16 %15, 1
  store i16 %16, ptr %6, align 2
  store i8 0, ptr %9, align 1
  br label %17

17:                                               ; preds = %29, %4
  %18 = load i8, ptr %9, align 1
  %19 = zext i8 %18 to i32
  %20 = load i8, ptr %10, align 1
  %21 = zext i8 %20 to i32
  %22 = icmp slt i32 %19, %21
  br i1 %22, label %23, label %32

23:                                               ; preds = %17
  %24 = load ptr, ptr %8, align 8
  %25 = load ptr, ptr %5, align 8
  %26 = load i16, ptr %6, align 2
  %27 = load ptr, ptr %7, align 8
  %28 = call signext i16 %24(ptr noundef %25, i16 noundef signext %26, ptr noundef %27)
  store i16 %28, ptr %6, align 2
  br label %29

29:                                               ; preds = %23
  %30 = load i8, ptr %9, align 1
  %31 = add i8 %30, 1
  store i8 %31, ptr %9, align 1
  br label %17, !llvm.loop !13

32:                                               ; preds = %17
  %33 = load i16, ptr %6, align 2
  call void @llvm.lifetime.end.p0(i64 1, ptr %10) #5
  call void @llvm.lifetime.end.p0(i64 1, ptr %9) #5
  ret i16 %33
}

; Function Attrs: null_pointer_is_valid sspstrong uwtable
define internal void @dissect_link_status_req(ptr noundef %0, i16 noundef signext %1, ptr noundef %2) #0 {
  %4 = alloca ptr, align 8
  %5 = alloca i16, align 2
  %6 = alloca ptr, align 8
  %7 = alloca ptr, align 8
  %8 = alloca i16, align 2
  store ptr %0, ptr %4, align 8
  store i16 %1, ptr %5, align 2
  store ptr %2, ptr %6, align 8
  call void @llvm.lifetime.start.p0(i64 8, ptr %7) #5
  call void @llvm.lifetime.start.p0(i64 2, ptr %8) #5
  %9 = load ptr, ptr %4, align 8
  %10 = load i16, ptr %5, align 2
  %11 = sext i16 %10 to i32
  %12 = call zeroext i16 @tvb_get_ntohs(ptr noundef %9, i32 noundef %11)
  store i16 %12, ptr %8, align 2
  %13 = load i16, ptr %8, align 2
  %14 = icmp ne i16 %13, 0
  br i1 %14, label %33, label %15

15:                                               ; preds = %3
  %16 = load ptr, ptr %6, align 8
  %17 = load ptr, ptr %4, align 8
  %18 = load i16, ptr %5, align 2
  %19 = sext i16 %18 to i32
  %20 = load i32, ptr @ett_link_states_req, align 4
  %21 = call ptr @proto_tree_add_subtree(ptr noundef %16, ptr noundef %17, i32 noundef %19, i32 noundef 3, i32 noundef %20, ptr noundef null, ptr noundef @.str.638)
  store ptr %21, ptr %7, align 8
  %22 = load ptr, ptr %7, align 8
  %23 = load i32, ptr @hf_op_mode, align 4
  %24 = load ptr, ptr %4, align 8
  %25 = load i16, ptr %5, align 2
  %26 = sext i16 %25 to i32
  %27 = add i32 %26, 2
  %28 = call ptr @proto_tree_add_item(ptr noundef %22, i32 noundef %23, ptr noundef %24, i32 noundef %27, i32 noundef 1, i32 noundef 0)
  %29 = load i16, ptr %5, align 2
  %30 = sext i16 %29 to i32
  %31 = add i32 %30, 3
  %32 = trunc i32 %31 to i16
  store i16 %32, ptr %5, align 2
  br label %51

33:                                               ; preds = %3
  %34 = load ptr, ptr %6, align 8
  %35 = load ptr, ptr %4, align 8
  %36 = load i16, ptr %5, align 2
  %37 = sext i16 %36 to i32
  %38 = load i32, ptr @ett_link_states_req, align 4
  %39 = call ptr @proto_tree_add_subtree(ptr noundef %34, ptr noundef %35, i32 noundef %37, i32 noundef 4, i32 noundef %38, ptr noundef null, ptr noundef @.str.638)
  store ptr %39, ptr %7, align 8
  %40 = load ptr, ptr %7, align 8
  %41 = load i32, ptr @hf_channel_id, align 4
  %42 = load ptr, ptr %4, align 8
  %43 = load i16, ptr %5, align 2
  %44 = sext i16 %43 to i32
  %45 = add i32 %44, 2
  %46 = call ptr @proto_tree_add_item(ptr noundef %40, i32 noundef %41, ptr noundef %42, i32 noundef %45, i32 noundef 2, i32 noundef 0)
  %47 = load i16, ptr %5, align 2
  %48 = sext i16 %47 to i32
  %49 = add i32 %48, 4
  %50 = trunc i32 %49 to i16
  store i16 %50, ptr %5, align 2
  br label %51

51:                                               ; preds = %33, %15
  %52 = load ptr, ptr %4, align 8
  %53 = load i16, ptr %5, align 2
  %54 = load ptr, ptr %6, align 8
  %55 = call signext i16 @dissect_mih_list(ptr noundef %52, i16 noundef signext %53, ptr noundef %54, ptr noundef @dissect_link_param_type)
  store i16 %55, ptr %5, align 2
  %56 = load ptr, ptr %4, align 8
  %57 = load i16, ptr %5, align 2
  %58 = sext i16 %57 to i32
  %59 = call zeroext i16 @tvb_get_ntohs(ptr noundef %56, i32 noundef %58)
  store i16 %59, ptr %8, align 2
  %60 = load ptr, ptr %6, align 8
  %61 = load ptr, ptr %4, align 8
  %62 = load i16, ptr %5, align 2
  %63 = sext i16 %62 to i32
  %64 = load i32, ptr @ett_link_desc_req, align 4
  %65 = call ptr @proto_tree_add_subtree(ptr noundef %60, ptr noundef %61, i32 noundef %63, i32 noundef 3, i32 noundef %64, ptr noundef null, ptr noundef @.str.639)
  store ptr %65, ptr %7, align 8
  %66 = load i16, ptr %5, align 2
  %67 = sext i16 %66 to i32
  %68 = add i32 %67, 2
  %69 = trunc i32 %68 to i16
  store i16 %69, ptr %5, align 2
  %70 = load i16, ptr %8, align 2
  %71 = icmp ne i16 %70, 0
  br i1 %71, label %79, label %72

72:                                               ; preds = %51
  %73 = load ptr, ptr %7, align 8
  %74 = load i32, ptr @hf_num_cos, align 4
  %75 = load ptr, ptr %4, align 8
  %76 = load i16, ptr %5, align 2
  %77 = sext i16 %76 to i32
  %78 = call ptr @proto_tree_add_item(ptr noundef %73, i32 noundef %74, ptr noundef %75, i32 noundef %77, i32 noundef 1, i32 noundef 0)
  br label %86

79:                                               ; preds = %51
  %80 = load ptr, ptr %7, align 8
  %81 = load i32, ptr @hf_num_queue, align 4
  %82 = load ptr, ptr %4, align 8
  %83 = load i16, ptr %5, align 2
  %84 = sext i16 %83 to i32
  %85 = call ptr @proto_tree_add_item(ptr noundef %80, i32 noundef %81, ptr noundef %82, i32 noundef %84, i32 noundef 1, i32 noundef 0)
  br label %86

86:                                               ; preds = %79, %72
  call void @llvm.lifetime.end.p0(i64 2, ptr %8) #5
  call void @llvm.lifetime.end.p0(i64 8, ptr %7) #5
  ret void
}