; Function Attrs: null_pointer_is_valid sspstrong uwtable
define internal fastcc void @dissect_link_status_req(ptr noundef %0, i16 noundef signext %1, ptr noundef %2) unnamed_addr #0 {
  %4 = sext i16 %1 to i32
  %5 = tail call zeroext i16 @tvb_get_ntohs(ptr noundef %0, i32 noundef %4)
  %.not = icmp eq i16 %5, 0
  %6 = load i32, ptr @ett_link_states_req, align 4
  %7 = add nsw i32 %4, 2
  %. = select i1 %.not, i32 3, i32 4
  %.38 = select i1 %.not, i32 1, i32 2
  %.39 = select i1 %.not, i16 3, i16 4
  %8 = tail call ptr @proto_tree_add_subtree(ptr noundef %2, ptr noundef %0, i32 noundef %4, i32 noundef %., i32 noundef %6, ptr noundef null, ptr noundef nonnull @.str.638)
  %hf_op_mode.val = load i32, ptr @hf_op_mode, align 4
  %hf_channel_id.val = load i32, ptr @hf_channel_id, align 4
  %9 = select i1 %.not, i32 %hf_op_mode.val, i32 %hf_channel_id.val
  %10 = tail call ptr @proto_tree_add_item(ptr noundef %8, i32 noundef %9, ptr noundef %0, i32 noundef %7, i32 noundef %.38, i32 noundef 0)
  %11 = add i16 %1, %.39
  %12 = sext i16 %11 to i32
  %13 = tail call zeroext i8 @tvb_get_uint8(ptr noundef %0, i32 noundef %12)
  %14 = add i16 %11, 1
  %.not.i = icmp eq i8 %13, 0
  br i1 %.not.i, label %dissect_mih_list.exit, label %.lr.ph.i

.lr.ph.i:                                         ; preds = %3, %dissect_link_param_type.exit
  %.012.i = phi i16 [ %23, %dissect_link_param_type.exit ], [ %14, %3 ]
  %.01011.i = phi i8 [ %24, %dissect_link_param_type.exit ], [ 0, %3 ]
  %15 = sext i16 %.012.i to i32
  %16 = tail call zeroext i8 @tvb_get_uint8(ptr noundef %0, i32 noundef %15)
  %17 = icmp ult i8 %16, 12
  br i1 %17, label %switch.lookup, label %dissect_link_param_type.exit

switch.lookup:                                    ; preds = %.lr.ph.i
  %18 = add i16 %.012.i, 1
  %19 = zext nneg i8 %16 to i64
  %switch.gep = getelementptr inbounds nuw [12 x ptr], ptr @switch.table.dissect_link_param, i64 0, i64 %19
  %switch.load = load ptr, ptr %switch.gep, align 8
  %20 = load i32, ptr %switch.load, align 4
  %21 = sext i16 %18 to i32
  %22 = tail call ptr @proto_tree_add_item(ptr noundef %2, i32 noundef %20, ptr noundef %0, i32 noundef %21, i32 noundef 1, i32 noundef 0)
  br label %dissect_link_param_type.exit

dissect_link_param_type.exit:                     ; preds = %.lr.ph.i, %switch.lookup
  %23 = add i16 %.012.i, 2
  %24 = add nuw i8 %.01011.i, 1
  %exitcond.not.i = icmp eq i8 %24, %13
  br i1 %exitcond.not.i, label %dissect_mih_list.exit, label %.lr.ph.i, !llvm.loop !11

dissect_mih_list.exit:                            ; preds = %dissect_link_param_type.exit, %3
  %.0.lcssa.i = phi i16 [ %14, %3 ], [ %23, %dissect_link_param_type.exit ]
  %25 = sext i16 %.0.lcssa.i to i32
  %26 = tail call zeroext i16 @tvb_get_ntohs(ptr noundef %0, i32 noundef %25)
  %27 = load i32, ptr @ett_link_desc_req, align 4
  %28 = tail call ptr @proto_tree_add_subtree(ptr noundef %2, ptr noundef %0, i32 noundef %25, i32 noundef 3, i32 noundef %27, ptr noundef null, ptr noundef nonnull @.str.639)
  %29 = add i16 %.0.lcssa.i, 2
  %.not32 = icmp eq i16 %26, 0
  %30 = sext i16 %29 to i32
  %hf_num_cos.val = load i32, ptr @hf_num_cos, align 4
  %hf_num_queue.val = load i32, ptr @hf_num_queue, align 4
  %31 = select i1 %.not32, i32 %hf_num_cos.val, i32 %hf_num_queue.val
  %32 = tail call ptr @proto_tree_add_item(ptr noundef %28, i32 noundef %31, ptr noundef %0, i32 noundef %30, i32 noundef 1, i32 noundef 0)
  ret void
}